target datalayout = "e-m:e-p270:32:32-p271:32:32-p272:64:64-i64:64-f80:128-n8:16:32:64-S128"
target triple = "x86_64-pc-linux-gnu"

@.str = private unnamed_addr constant [4 x i8] c"%d\0A\00", align 1
@.str.1 = private unnamed_addr constant [3 x i8] c"%c\00", align 1
@.str.2 = private unnamed_addr constant [2 x i8] c"\0A\00", align 1
@.str.3 = private unnamed_addr constant [4 x i8] c"NO\0A\00", align 1

; Function Attrs: noinline nounwind uwtable
define dso_local void @main() #0 {
  %1 = alloca [500 x i8], align 16
  %2 = alloca [500 x i8], align 16
  %3 = alloca i32, align 4
  %4 = alloca i32, align 4
  %5 = alloca i32, align 4
  %6 = alloca i32, align 4
  %7 = alloca i32, align 4
  %8 = alloca i32, align 4
  %9 = alloca i32, align 4
  %10 = alloca i32, align 4
  %11 = call i32 (i8*, ...) @__isoc99_scanf(i8* getelementptr inbounds ([4 x i8], [4 x i8]* @.str, i64 0, i64 0), i32* %7)
  %12 = getelementptr inbounds [500 x i8], [500 x i8]* %1, i64 0, i64 0
  %13 = call i32 (i8*, ...) bitcast (i32 (...)* @gets to i32 (i8*, ...)*)(i8* %12)
  %14 = getelementptr inbounds [500 x i8], [500 x i8]* %1, i64 0, i64 0
  %15 = call i64 @strlen(i8* %14) #3
  %16 = trunc i64 %15 to i32
  store i32 %16, i32* %6, align 4
  store i32 0, i32* %3, align 4
  br label %17

17:                                               ; preds = %79, %0
  %18 = load i32, i32* %3, align 4
  %19 = load i32, i32* %6, align 4
  %20 = load i32, i32* %7, align 4
  %21 = sub nsw i32 %19, %20
  %22 = icmp sle i32 %18, %21
  br i1 %22, label %23, label %82

23:                                               ; preds = %17
  %24 = load i32, i32* %3, align 4
  %25 = sext i32 %24 to i64
  %26 = getelementptr inbounds [500 x i8], [500 x i8]* %2, i64 0, i64 %25
  store i8 0, i8* %26, align 1
  %27 = load i32, i32* %3, align 4
  store i32 %27, i32* %4, align 4
  br label %28

28:                                               ; preds = %75, %23
  %29 = load i32, i32* %4, align 4
  %30 = load i32, i32* %6, align 4
  %31 = load i32, i32* %7, align 4
  %32 = sub nsw i32 %30, %31
  %33 = icmp sle i32 %29, %32
  br i1 %33, label %34, label %78

34:                                               ; preds = %28
  store i32 1, i32* %10, align 4
  store i32 0, i32* %8, align 4
  br label %35

35:                                               ; preds = %62, %34
  %36 = load i32, i32* %8, align 4
  %37 = load i32, i32* %7, align 4
  %38 = icmp slt i32 %36, %37
  br i1 %38, label %39, label %65

39:                                               ; preds = %35
  %40 = load i32, i32* %3, align 4
  %41 = load i32, i32* %8, align 4
  %42 = add nsw i32 %40, %41
  %43 = sext i32 %42 to i64
  %44 = getelementptr inbounds [500 x i8], [500 x i8]* %1, i64 0, i64 %43
  %45 = load i8, i8* %44, align 1
  %46 = sext i8 %45 to i32
  %47 = load i32, i32* %4, align 4
  %48 = load i32, i32* %8, align 4
  %49 = add nsw i32 %47, %48
  %50 = sext i32 %49 to i64
  %51 = getelementptr inbounds [500 x i8], [500 x i8]* %1, i64 0, i64 %50
  %52 = load i8, i8* %51, align 1
  %53 = sext i8 %52 to i32
  %54 = icmp eq i32 %46, %53
  br i1 %54, label %55, label %56

55:                                               ; preds = %39
  store i32 1, i32* %5, align 4
  br label %57

56:                                               ; preds = %39
  store i32 0, i32* %5, align 4
  br label %57

57:                                               ; preds = %56, %55
  %58 = load i32, i32* %5, align 4
  %59 = mul nsw i32 1, %58
  %60 = load i32, i32* %10, align 4
  %61 = mul nsw i32 %59, %60
  store i32 %61, i32* %10, align 4
  br label %62

62:                                               ; preds = %57
  %63 = load i32, i32* %8, align 4
  %64 = add nsw i32 %63, 1
  store i32 %64, i32* %8, align 4
  br label %35

65:                                               ; preds = %35
  %66 = load i32, i32* %10, align 4
  %67 = icmp eq i32 %66, 1
  br i1 %67, label %68, label %74

68:                                               ; preds = %65
  %69 = load i32, i32* %3, align 4
  %70 = sext i32 %69 to i64
  %71 = getelementptr inbounds [500 x i8], [500 x i8]* %2, i64 0, i64 %70
  %72 = load i8, i8* %71, align 1
  %73 = add i8 %72, 1
  store i8 %73, i8* %71, align 1
  br label %74

74:                                               ; preds = %68, %65
  br label %75

75:                                               ; preds = %74
  %76 = load i32, i32* %4, align 4
  %77 = add nsw i32 %76, 1
  store i32 %77, i32* %4, align 4
  br label %28

78:                                               ; preds = %28
  br label %79

79:                                               ; preds = %78
  %80 = load i32, i32* %3, align 4
  %81 = add nsw i32 %80, 1
  store i32 %81, i32* %3, align 4
  br label %17

82:                                               ; preds = %17
  store i32 1, i32* %9, align 4
  store i32 0, i32* %3, align 4
  br label %83

83:                                               ; preds = %104, %82
  %84 = load i32, i32* %3, align 4
  %85 = load i32, i32* %6, align 4
  %86 = load i32, i32* %7, align 4
  %87 = sub nsw i32 %85, %86
  %88 = icmp sle i32 %84, %87
  br i1 %88, label %89, label %107

89:                                               ; preds = %83
  %90 = load i32, i32* %3, align 4
  %91 = sext i32 %90 to i64
  %92 = getelementptr inbounds [500 x i8], [500 x i8]* %2, i64 0, i64 %91
  %93 = load i8, i8* %92, align 1
  %94 = sext i8 %93 to i32
  %95 = load i32, i32* %9, align 4
  %96 = icmp sge i32 %94, %95
  br i1 %96, label %97, label %103

97:                                               ; preds = %89
  %98 = load i32, i32* %3, align 4
  %99 = sext i32 %98 to i64
  %100 = getelementptr inbounds [500 x i8], [500 x i8]* %2, i64 0, i64 %99
  %101 = load i8, i8* %100, align 1
  %102 = sext i8 %101 to i32
  store i32 %102, i32* %9, align 4
  br label %103

103:                                              ; preds = %97, %89
  br label %104

104:                                              ; preds = %103
  %105 = load i32, i32* %3, align 4
  %106 = add nsw i32 %105, 1
  store i32 %106, i32* %3, align 4
  br label %83

107:                                              ; preds = %83
  %108 = load i32, i32* %9, align 4
  %109 = icmp ne i32 %108, 1
  br i1 %109, label %110, label %151

110:                                              ; preds = %107
  %111 = load i32, i32* %9, align 4
  %112 = call i32 (i8*, ...) @printf(i8* getelementptr inbounds ([4 x i8], [4 x i8]* @.str, i64 0, i64 0), i32 %111)
  store i32 0, i32* %3, align 4
  br label %113

113:                                              ; preds = %147, %110
  %114 = load i32, i32* %3, align 4
  %115 = load i32, i32* %6, align 4
  %116 = load i32, i32* %7, align 4
  %117 = sub nsw i32 %115, %116
  %118 = icmp sle i32 %114, %117
  br i1 %118, label %119, label %150

119:                                              ; preds = %113
  %120 = load i32, i32* %3, align 4
  %121 = sext i32 %120 to i64
  %122 = getelementptr inbounds [500 x i8], [500 x i8]* %2, i64 0, i64 %121
  %123 = load i8, i8* %122, align 1
  %124 = sext i8 %123 to i32
  %125 = load i32, i32* %9, align 4
  %126 = icmp eq i32 %124, %125
  br i1 %126, label %127, label %146

127:                                              ; preds = %119
  store i32 0, i32* %8, align 4
  br label %128

128:                                              ; preds = %141, %127
  %129 = load i32, i32* %8, align 4
  %130 = load i32, i32* %7, align 4
  %131 = icmp slt i32 %129, %130
  br i1 %131, label %132, label %144

132:                                              ; preds = %128
  %133 = load i32, i32* %3, align 4
  %134 = load i32, i32* %8, align 4
  %135 = add nsw i32 %133, %134
  %136 = sext i32 %135 to i64
  %137 = getelementptr inbounds [500 x i8], [500 x i8]* %1, i64 0, i64 %136
  %138 = load i8, i8* %137, align 1
  %139 = sext i8 %138 to i32
  %140 = call i32 (i8*, ...) @printf(i8* getelementptr inbounds ([3 x i8], [3 x i8]* @.str.1, i64 0, i64 0), i32 %139)
  br label %141

141:                                              ; preds = %132
  %142 = load i32, i32* %8, align 4
  %143 = add nsw i32 %142, 1
  store i32 %143, i32* %8, align 4
  br label %128

144:                                              ; preds = %128
  %145 = call i32 (i8*, ...) @printf(i8* getelementptr inbounds ([2 x i8], [2 x i8]* @.str.2, i64 0, i64 0))
  br label %146

146:                                              ; preds = %144, %119
  br label %147

147:                                              ; preds = %146
  %148 = load i32, i32* %3, align 4
  %149 = add nsw i32 %148, 1
  store i32 %149, i32* %3, align 4
  br label %113

150:                                              ; preds = %113
  br label %153

151:                                              ; preds = %107
  %152 = call i32 (i8*, ...) @printf(i8* getelementptr inbounds ([4 x i8], [4 x i8]* @.str.3, i64 0, i64 0))
  br label %153

153:                                              ; preds = %151, %150
  ret void
}